target datalayout = "e-m:e-p270:32:32-p271:32:32-p272:64:64-i64:64-i128:128-f80:128-n8:16:32:64-S128"
target triple = "x86_64-pc-linux-gnu"

; Function Attrs: nounwind uwtable
define internal i32 @be32(i32 noundef %0) #0 {
  %2 = alloca i32, align 4
  %3 = alloca i32, align 4
  %4 = alloca i32, align 4
  store i32 %0, ptr %2, align 4, !tbaa !31
  call void @llvm.lifetime.start.p0(i64 4, ptr %3) #6
  store i32 0, ptr %3, align 4, !tbaa !31
  call void @llvm.lifetime.start.p0(i64 4, ptr %4) #6
  store i32 1, ptr %4, align 4, !tbaa !31
  %5 = load i32, ptr %2, align 4, !tbaa !31
  %6 = and i32 %5, -16777216
  %7 = lshr i32 %6, 24
  %8 = load i32, ptr %3, align 4, !tbaa !31
  %9 = or i32 %8, %7
  store i32 %9, ptr %3, align 4, !tbaa !31
  %10 = load i32, ptr %2, align 4, !tbaa !31
  %11 = and i32 %10, 16711680
  %12 = lshr i32 %11, 8
  %13 = load i32, ptr %3, align 4, !tbaa !31
  %14 = or i32 %13, %12
  store i32 %14, ptr %3, align 4, !tbaa !31
  %15 = load i32, ptr %2, align 4, !tbaa !31
  %16 = and i32 %15, 65280
  %17 = shl i32 %16, 8
  %18 = load i32, ptr %3, align 4, !tbaa !31
  %19 = or i32 %18, %17
  store i32 %19, ptr %3, align 4, !tbaa !31
  %20 = load i32, ptr %2, align 4, !tbaa !31
  %21 = and i32 %20, 255
  %22 = shl i32 %21, 24
  %23 = load i32, ptr %3, align 4, !tbaa !31
  %24 = or i32 %23, %22
  store i32 %24, ptr %3, align 4, !tbaa !31
  %25 = load i32, ptr %3, align 4, !tbaa !31
  call void @llvm.lifetime.end.p0(i64 4, ptr %4) #6
  call void @llvm.lifetime.end.p0(i64 4, ptr %3) #6
  ret i32 %25
}

; Function Attrs: nounwind uwtable
define internal i32 @derive(ptr noundef %0, i32 noundef %1, ptr noundef %2, i64 noundef %3, ptr noundef %4, i64 noundef %5, ptr noundef %6, i64 noundef %7, ptr noundef %8, i64 noundef %9, i32 noundef %10, i32 noundef %11, ptr noundef %12, i64 noundef %13, i32 noundef %14) #0 {
  %16 = alloca ptr, align 8
  %17 = alloca i32, align 4
  %18 = alloca ptr, align 8
  %19 = alloca i64, align 8
  %20 = alloca ptr, align 8
  %21 = alloca i64, align 8
  %22 = alloca ptr, align 8
  %23 = alloca i64, align 8
  %24 = alloca ptr, align 8
  %25 = alloca i64, align 8
  %26 = alloca i32, align 4
  %27 = alloca i32, align 4
  %28 = alloca ptr, align 8
  %29 = alloca i64, align 8
  %30 = alloca i32, align 4
  %31 = alloca i32, align 4
  %32 = alloca ptr, align 8
  %33 = alloca i64, align 8
  %34 = alloca i64, align 8
  %35 = alloca i64, align 8
  %36 = alloca i8, align 1
  %37 = alloca i32, align 4
  %38 = alloca i32, align 4
  %39 = alloca i32, align 4
  store ptr %0, ptr %16, align 8, !tbaa !37
  store i32 %1, ptr %17, align 4, !tbaa !31
  store ptr %2, ptr %18, align 8, !tbaa !27
  store i64 %3, ptr %19, align 8, !tbaa !28
  store ptr %4, ptr %20, align 8, !tbaa !27
  store i64 %5, ptr %21, align 8, !tbaa !28
  store ptr %6, ptr %22, align 8, !tbaa !27
  store i64 %7, ptr %23, align 8, !tbaa !28
  store ptr %8, ptr %24, align 8, !tbaa !27
  store i64 %9, ptr %25, align 8, !tbaa !28
  store i32 %10, ptr %26, align 4, !tbaa !31
  store i32 %11, ptr %27, align 4, !tbaa !31
  store ptr %12, ptr %28, align 8, !tbaa !27
  store i64 %13, ptr %29, align 8, !tbaa !28
  store i32 %14, ptr %30, align 4, !tbaa !31
  call void @llvm.lifetime.start.p0(i64 4, ptr %31) #6
  store i32 0, ptr %31, align 4, !tbaa !31
  call void @llvm.lifetime.start.p0(i64 8, ptr %32) #6
  store ptr null, ptr %32, align 8, !tbaa !37
  call void @llvm.lifetime.start.p0(i64 8, ptr %33) #6
  store i64 0, ptr %33, align 8, !tbaa !28
  call void @llvm.lifetime.start.p0(i64 8, ptr %34) #6
  call void @llvm.lifetime.start.p0(i64 8, ptr %35) #6
  %40 = load i64, ptr %19, align 8, !tbaa !28
  store i64 %40, ptr %35, align 8, !tbaa !28
  call void @llvm.lifetime.start.p0(i64 1, ptr %36) #6
  store i8 0, ptr %36, align 1, !tbaa !39
  call void @llvm.lifetime.start.p0(i64 4, ptr %37) #6
  call void @llvm.lifetime.start.p0(i64 4, ptr %38) #6
  call void @llvm.lifetime.start.p0(i64 4, ptr %39) #6
  %41 = load i32, ptr %26, align 4, !tbaa !31
  %42 = icmp ne i32 %41, 0
  %43 = zext i1 %42 to i32
  store i32 %43, ptr %39, align 4, !tbaa !31
  %44 = load i64, ptr %19, align 8, !tbaa !28
  %45 = icmp ugt i64 %44, 0
  br i1 %45, label %46, label %50

46:                                               ; preds = %15
  %47 = load ptr, ptr %24, align 8, !tbaa !27
  %48 = load ptr, ptr %18, align 8, !tbaa !27
  %49 = load i64, ptr %19, align 8, !tbaa !28
  call void @llvm.memcpy.p0.p0.i64(ptr align 1 %47, ptr align 1 %48, i64 %49, i1 false)
  br label %50

50:                                               ; preds = %46, %15
  store i32 1, ptr %37, align 4, !tbaa !31
  br label %51

51:                                               ; preds = %140, %50
  %52 = load i64, ptr %33, align 8, !tbaa !28
  %53 = load i64, ptr %29, align 8, !tbaa !28
  %54 = icmp ult i64 %52, %53
  br i1 %54, label %55, label %143

55:                                               ; preds = %51
  %56 = load i32, ptr %37, align 4, !tbaa !31
  %57 = call i32 @be32(i32 noundef %56)
  store i32 %57, ptr %38, align 4, !tbaa !31
  %58 = load ptr, ptr %16, align 8, !tbaa !37
  %59 = call ptr @EVP_MAC_CTX_dup(ptr noundef %58)
  store ptr %59, ptr %32, align 8, !tbaa !37
  %60 = load ptr, ptr %32, align 8, !tbaa !37
  %61 = icmp eq ptr %60, null
  br i1 %61, label %62, label %63

62:                                               ; preds = %55
  br label %144

63:                                               ; preds = %55
  %64 = load i32, ptr %17, align 4, !tbaa !31
  %65 = icmp eq i32 %64, 1
  br i1 %65, label %66, label %73

66:                                               ; preds = %63
  %67 = load ptr, ptr %32, align 8, !tbaa !37
  %68 = load ptr, ptr %24, align 8, !tbaa !27
  %69 = load i64, ptr %35, align 8, !tbaa !28
  %70 = call i32 @EVP_MAC_update(ptr noundef %67, ptr noundef %68, i64 noundef %69)
  %71 = icmp ne i32 %70, 0
  br i1 %71, label %73, label %72

72:                                               ; preds = %66
  br label %144

73:                                               ; preds = %66, %63
  %74 = load ptr, ptr %32, align 8, !tbaa !37
  %75 = load i32, ptr %30, align 4, !tbaa !31
  %76 = sdiv i32 %75, 8
  %77 = sub nsw i32 4, %76
  %78 = sext i32 %77 to i64
  %79 = getelementptr inbounds i8, ptr %38, i64 %78
  %80 = load i32, ptr %30, align 4, !tbaa !31
  %81 = sdiv i32 %80, 8
  %82 = sext i32 %81 to i64
  %83 = call i32 @EVP_MAC_update(ptr noundef %74, ptr noundef %79, i64 noundef %82)
  %84 = icmp ne i32 %83, 0
  br i1 %84, label %85, label %117

85:                                               ; preds = %73
  %86 = load ptr, ptr %32, align 8, !tbaa !37
  %87 = load ptr, ptr %20, align 8, !tbaa !27
  %88 = load i64, ptr %21, align 8, !tbaa !28
  %89 = call i32 @EVP_MAC_update(ptr noundef %86, ptr noundef %87, i64 noundef %88)
  %90 = icmp ne i32 %89, 0
  br i1 %90, label %91, label %117

91:                                               ; preds = %85
  %92 = load i32, ptr %27, align 4, !tbaa !31
  %93 = icmp ne i32 %92, 0
  br i1 %93, label %94, label %98

94:                                               ; preds = %91
  %95 = load ptr, ptr %32, align 8, !tbaa !37
  %96 = call i32 @EVP_MAC_update(ptr noundef %95, ptr noundef %36, i64 noundef 1)
  %97 = icmp ne i32 %96, 0
  br i1 %97, label %98, label %117

98:                                               ; preds = %94, %91
  %99 = load ptr, ptr %32, align 8, !tbaa !37
  %100 = load ptr, ptr %22, align 8, !tbaa !27
  %101 = load i64, ptr %23, align 8, !tbaa !28
  %102 = call i32 @EVP_MAC_update(ptr noundef %99, ptr noundef %100, i64 noundef %101)
  %103 = icmp ne i32 %102, 0
  br i1 %103, label %104, label %117

104:                                              ; preds = %98
  %105 = load i32, ptr %39, align 4, !tbaa !31
  %106 = icmp ne i32 %105, 0
  br i1 %106, label %107, label %111

107:                                              ; preds = %104
  %108 = load ptr, ptr %32, align 8, !tbaa !37
  %109 = call i32 @EVP_MAC_update(ptr noundef %108, ptr noundef %26, i64 noundef 4)
  %110 = icmp ne i32 %109, 0
  br i1 %110, label %111, label %117

111:                                              ; preds = %107, %104
  %112 = load ptr, ptr %32, align 8, !tbaa !37
  %113 = load ptr, ptr %24, align 8, !tbaa !27
  %114 = load i64, ptr %25, align 8, !tbaa !28
  %115 = call i32 @EVP_MAC_final(ptr noundef %112, ptr noundef %113, ptr noundef null, i64 noundef %114)
  %116 = icmp ne i32 %115, 0
  br i1 %116, label %118, label %117

117:                                              ; preds = %111, %107, %98, %94, %85, %73
  br label %144

118:                                              ; preds = %111
  %119 = load i64, ptr %29, align 8, !tbaa !28
  %120 = load i64, ptr %33, align 8, !tbaa !28
  %121 = sub i64 %119, %120
  store i64 %121, ptr %34, align 8, !tbaa !28
  %122 = load ptr, ptr %28, align 8, !tbaa !27
  %123 = load i64, ptr %33, align 8, !tbaa !28
  %124 = getelementptr inbounds nuw i8, ptr %122, i64 %123
  %125 = load ptr, ptr %24, align 8, !tbaa !27
  %126 = load i64, ptr %34, align 8, !tbaa !28
  %127 = load i64, ptr %25, align 8, !tbaa !28
  %128 = icmp ult i64 %126, %127
  br i1 %128, label %129, label %131

129:                                              ; preds = %118
  %130 = load i64, ptr %34, align 8, !tbaa !28
  br label %133

131:                                              ; preds = %118
  %132 = load i64, ptr %25, align 8, !tbaa !28
  br label %133

133:                                              ; preds = %131, %129
  %134 = phi i64 [ %130, %129 ], [ %132, %131 ]
  call void @llvm.memcpy.p0.p0.i64(ptr align 1 %124, ptr align 1 %125, i64 %134, i1 false)
  %135 = load i64, ptr %25, align 8, !tbaa !28
  %136 = load i64, ptr %33, align 8, !tbaa !28
  %137 = add i64 %136, %135
  store i64 %137, ptr %33, align 8, !tbaa !28
  %138 = load i64, ptr %25, align 8, !tbaa !28
  store i64 %138, ptr %35, align 8, !tbaa !28
  %139 = load ptr, ptr %32, align 8, !tbaa !37
  call void @EVP_MAC_CTX_free(ptr noundef %139)
  store ptr null, ptr %32, align 8, !tbaa !37
  br label %140

140:                                              ; preds = %133
  %141 = load i32, ptr %37, align 4, !tbaa !31
  %142 = add i32 %141, 1
  store i32 %142, ptr %37, align 4, !tbaa !31
  br label %51, !llvm.loop !40

143:                                              ; preds = %51
  store i32 1, ptr %31, align 4, !tbaa !31
  br label %144

144:                                              ; preds = %143, %117, %72, %62
  %145 = load ptr, ptr %32, align 8, !tbaa !37
  call void @EVP_MAC_CTX_free(ptr noundef %145)
  %146 = load i32, ptr %31, align 4, !tbaa !31
  call void @llvm.lifetime.end.p0(i64 4, ptr %39) #6
  call void @llvm.lifetime.end.p0(i64 4, ptr %38) #6
  call void @llvm.lifetime.end.p0(i64 4, ptr %37) #6
  call void @llvm.lifetime.end.p0(i64 1, ptr %36) #6
  call void @llvm.lifetime.end.p0(i64 8, ptr %35) #6
  call void @llvm.lifetime.end.p0(i64 8, ptr %34) #6
  call void @llvm.lifetime.end.p0(i64 8, ptr %33) #6
  call void @llvm.lifetime.end.p0(i64 8, ptr %32) #6
  call void @llvm.lifetime.end.p0(i64 4, ptr %31) #6
  ret i32 %146
}