; Function Attrs: nounwind uwtable
define internal fastcc range(i32 0, 2) i32 @derive(ptr noundef %0, i32 noundef %1, ptr noundef readonly captures(none) %2, i64 noundef %3, ptr noundef %4, i64 noundef %5, ptr noundef %6, i64 noundef %7, ptr noundef nonnull %8, i64 noundef range(i64 1, 0) %9, i32 noundef %10, i32 noundef %11, ptr noundef writeonly captures(none) %12, i64 noundef range(i64 1, 0) %13, i32 noundef %14) unnamed_addr #0 {
  %16 = alloca i32, align 4
  %17 = alloca i8, align 1
  %18 = alloca i32, align 4
  store i32 %10, ptr %16, align 4, !tbaa !29
  call void @llvm.lifetime.start.p0(i64 1, ptr nonnull %17) #7
  store i8 0, ptr %17, align 1, !tbaa !35
  call void @llvm.lifetime.start.p0(i64 4, ptr nonnull %18) #7
  %.not = icmp eq i32 %10, 0
  %.not53 = icmp eq i64 %3, 0
  br i1 %.not53, label %20, label %19

19:                                               ; preds = %15
  tail call void @llvm.memcpy.p0.p0.i64(ptr nonnull align 1 %8, ptr align 1 %2, i64 %3, i1 false)
  br label %20

20:                                               ; preds = %19, %15
  %21 = icmp eq i32 %1, 1
  %22 = sdiv i32 %14, 8
  %23 = sub nsw i32 4, %22
  %24 = sext i32 %23 to i64
  %25 = getelementptr inbounds i8, ptr %18, i64 %24
  %26 = sext i32 %22 to i64
  %.not57 = icmp eq i32 %11, 0
  br label %27

27:                                               ; preds = %20, %48
  %.04564 = phi i32 [ 1, %20 ], [ %53, %48 ]
  %.04663 = phi i64 [ %3, %20 ], [ %9, %48 ]
  %.04862 = phi i64 [ 0, %20 ], [ %52, %48 ]
  %28 = call noundef i32 @llvm.bswap.i32(i32 %.04564)
  store i32 %28, ptr %18, align 4, !tbaa !29
  %29 = call ptr @EVP_MAC_CTX_dup(ptr noundef %0) #7
  %30 = icmp eq ptr %29, null
  br i1 %30, label %55, label %31

31:                                               ; preds = %27
  br i1 %21, label %32, label %34

32:                                               ; preds = %31
  %33 = call i32 @EVP_MAC_update(ptr noundef nonnull %29, ptr noundef nonnull %8, i64 noundef %.04663) #7
  %.not54 = icmp eq i32 %33, 0
  br i1 %.not54, label %55, label %34

34:                                               ; preds = %32, %31
  %35 = call i32 @EVP_MAC_update(ptr noundef nonnull %29, ptr noundef nonnull %25, i64 noundef %26) #7
  %.not55 = icmp eq i32 %35, 0
  br i1 %.not55, label %55, label %36

36:                                               ; preds = %34
  %37 = call i32 @EVP_MAC_update(ptr noundef nonnull %29, ptr noundef %4, i64 noundef %5) #7
  %.not56 = icmp eq i32 %37, 0
  br i1 %.not56, label %55, label %38

38:                                               ; preds = %36
  br i1 %.not57, label %41, label %39

39:                                               ; preds = %38
  %40 = call i32 @EVP_MAC_update(ptr noundef nonnull %29, ptr noundef nonnull %17, i64 noundef 1) #7
  %.not58 = icmp eq i32 %40, 0
  br i1 %.not58, label %55, label %41

41:                                               ; preds = %39, %38
  %42 = call i32 @EVP_MAC_update(ptr noundef nonnull %29, ptr noundef %6, i64 noundef %7) #7
  %.not59 = icmp eq i32 %42, 0
  br i1 %.not59, label %55, label %43

43:                                               ; preds = %41
  br i1 %.not, label %46, label %44

44:                                               ; preds = %43
  %45 = call i32 @EVP_MAC_update(ptr noundef nonnull %29, ptr noundef nonnull %16, i64 noundef 4) #7
  %.not60 = icmp eq i32 %45, 0
  br i1 %.not60, label %55, label %46

46:                                               ; preds = %44, %43
  %47 = call i32 @EVP_MAC_final(ptr noundef nonnull %29, ptr noundef nonnull %8, ptr noundef null, i64 noundef %9) #7
  %.not61 = icmp eq i32 %47, 0
  br i1 %.not61, label %55, label %48

48:                                               ; preds = %46
  %49 = sub i64 %13, %.04862
  %50 = getelementptr inbounds nuw i8, ptr %12, i64 %.04862
  %51 = call i64 @llvm.umin.i64(i64 %49, i64 %9)
  call void @llvm.memcpy.p0.p0.i64(ptr align 1 %50, ptr nonnull align 1 %8, i64 %51, i1 false)
  %52 = add i64 %.04862, %9
  call void @EVP_MAC_CTX_free(ptr noundef nonnull %29) #7
  %53 = add i32 %.04564, 1
  %54 = icmp ult i64 %52, %13
  br i1 %54, label %27, label %55, !llvm.loop !36

55:                                               ; preds = %48, %34, %36, %39, %41, %44, %46, %32, %27
  %.1 = phi ptr [ null, %27 ], [ %29, %46 ], [ %29, %44 ], [ %29, %41 ], [ %29, %39 ], [ %29, %36 ], [ %29, %34 ], [ %29, %32 ], [ null, %48 ]
  %.0 = phi i32 [ 0, %27 ], [ 0, %46 ], [ 0, %44 ], [ 0, %41 ], [ 0, %39 ], [ 0, %36 ], [ 0, %34 ], [ 0, %32 ], [ 1, %48 ]
  call void @EVP_MAC_CTX_free(ptr noundef %.1) #7
  call void @llvm.lifetime.end.p0(i64 4, ptr nonnull %18) #7
  call void @llvm.lifetime.end.p0(i64 1, ptr nonnull %17) #7
  ret i32 %.0
}